target datalayout = "e-m:e-p270:32:32-p271:32:32-p272:64:64-i64:64-i128:128-f80:128-n8:16:32:64-S128"
target triple = "x86_64-pc-linux-gnu"

%"class.llvm::MCExpr" = type <{ i8, i32, [3 x i8], %"class.llvm::SMLoc" }>
%"class.llvm::SMLoc" = type { ptr }
%"class.llvm::MCSymbolRefExpr" = type { %"class.llvm::MCExpr", ptr }
%"class.llvm::MCBinaryExpr" = type { %"class.llvm::MCExpr", ptr, ptr }
%"class.llvm::MCUnaryExpr" = type { %"class.llvm::MCExpr", ptr }

; Function Attrs: mustprogress nounwind uwtable
define linkonce_odr hidden noundef ptr @_ZN4llvm16cast_convert_valINS_11MCUnaryExprEPKNS_6MCExprES4_E4doitES4_(ptr noundef %0) #0 comdat align 2 {
  %2 = alloca ptr, align 8
  store ptr %0, ptr %2, align 8
  %3 = load ptr, ptr %2, align 8
  ret ptr %3
}

; Function Attrs: mustprogress nounwind uwtable
define linkonce_odr hidden noundef nonnull align 8 dereferenceable(40) ptr @_ZN4llvm16cast_convert_valINS_11MCSymbolELFEKNS_8MCSymbolES3_E4doitERS3_(ptr noundef nonnull align 8 dereferenceable(32) %0) #0 comdat align 2 {
  %2 = alloca ptr, align 8
  store ptr %0, ptr %2, align 8
  %3 = load ptr, ptr %2, align 8
  ret ptr %3
}

; Function Attrs: mustprogress nounwind uwtable
define linkonce_odr hidden noundef ptr @_ZN4llvm16cast_convert_valINS_15MCSymbolRefExprEPKNS_6MCExprES4_E4doitES4_(ptr noundef %0) #0 comdat align 2 {
  %2 = alloca ptr, align 8
  store ptr %0, ptr %2, align 8
  %3 = load ptr, ptr %2, align 8
  ret ptr %3
}

; Function Attrs: mustprogress nounwind uwtable
define linkonce_odr hidden noundef ptr @_ZN4llvm16cast_convert_valINS_12MCBinaryExprEPKNS_6MCExprES4_E4doitES4_(ptr noundef %0) #0 comdat align 2 {
  %2 = alloca ptr, align 8
  store ptr %0, ptr %2, align 8
  %3 = load ptr, ptr %2, align 8
  ret ptr %3
}

; Function Attrs: mustprogress nounwind uwtable
define linkonce_odr hidden noundef ptr @_ZN4llvm8CastInfoINS_11MCUnaryExprEPKNS_6MCExprEvE6doCastERKS4_(ptr noundef nonnull align 8 dereferenceable(8) %0) #0 comdat align 2 {
  %2 = alloca ptr, align 8
  store ptr %0, ptr %2, align 8
  %3 = load ptr, ptr %2, align 8
  %4 = load ptr, ptr %3, align 8
  %5 = call noundef ptr @_ZN4llvm16cast_convert_valINS_11MCUnaryExprEPKNS_6MCExprES4_E4doitES4_(ptr noundef %4)
  ret ptr %5
}

; Function Attrs: mustprogress nounwind uwtable
define linkonce_odr hidden noundef nonnull align 8 dereferenceable(40) ptr @_ZN4llvm8CastInfoINS_11MCSymbolELFEKNS_8MCSymbolEvE6doCastERS3_(ptr noundef nonnull align 8 dereferenceable(32) %0) #0 comdat align 2 {
  %2 = alloca ptr, align 8
  store ptr %0, ptr %2, align 8
  %3 = load ptr, ptr %2, align 8
  %4 = call noundef nonnull align 8 dereferenceable(40) ptr @_ZN4llvm16cast_convert_valINS_11MCSymbolELFEKNS_8MCSymbolES3_E4doitERS3_(ptr noundef nonnull align 8 dereferenceable(32) %3)
  ret ptr %4
}

; Function Attrs: mustprogress nounwind uwtable
define linkonce_odr hidden noundef ptr @_ZN4llvm8CastInfoINS_15MCSymbolRefExprEPKNS_6MCExprEvE6doCastERKS4_(ptr noundef nonnull align 8 dereferenceable(8) %0) #0 comdat align 2 {
  %2 = alloca ptr, align 8
  store ptr %0, ptr %2, align 8
  %3 = load ptr, ptr %2, align 8
  %4 = load ptr, ptr %3, align 8
  %5 = call noundef ptr @_ZN4llvm16cast_convert_valINS_15MCSymbolRefExprEPKNS_6MCExprES4_E4doitES4_(ptr noundef %4)
  ret ptr %5
}

; Function Attrs: mustprogress nounwind uwtable
define linkonce_odr hidden noundef ptr @_ZN4llvm8CastInfoINS_12MCBinaryExprEPKNS_6MCExprEvE6doCastERKS4_(ptr noundef nonnull align 8 dereferenceable(8) %0) #0 comdat align 2 {
  %2 = alloca ptr, align 8
  store ptr %0, ptr %2, align 8
  %3 = load ptr, ptr %2, align 8
  %4 = load ptr, ptr %3, align 8
  %5 = call noundef ptr @_ZN4llvm16cast_convert_valINS_12MCBinaryExprEPKNS_6MCExprES4_E4doitES4_(ptr noundef %4)
  ret ptr %5
}

; Function Attrs: mustprogress nounwind uwtable
define linkonce_odr hidden noundef ptr @_ZNK4llvm11MCUnaryExpr10getSubExprEv(ptr noundef nonnull align 8 dereferenceable(24) %0) #0 comdat align 2 {
  %2 = alloca ptr, align 8
  store ptr %0, ptr %2, align 8
  %3 = load ptr, ptr %2, align 8
  %4 = getelementptr inbounds nuw %"class.llvm::MCUnaryExpr", ptr %3, i32 0, i32 1
  %5 = load ptr, ptr %4, align 8
  ret ptr %5
}

; Function Attrs: mustprogress nounwind uwtable
define linkonce_odr hidden noundef ptr @_ZN4llvm4castINS_11MCUnaryExprEKNS_6MCExprEEEDcPT0_(ptr noundef %0) #0 comdat {
  %2 = alloca ptr, align 8
  store ptr %0, ptr %2, align 8
  %3 = call noundef ptr @_ZN4llvm8CastInfoINS_11MCUnaryExprEPKNS_6MCExprEvE6doCastERKS4_(ptr noundef nonnull align 8 dereferenceable(8) %2)
  ret ptr %3
}

; Function Attrs: mustprogress nounwind uwtable
define linkonce_odr hidden noundef nonnull align 8 dereferenceable(40) ptr @_ZN4llvm4castINS_11MCSymbolELFENS_8MCSymbolEEEDcRKT0_(ptr noundef nonnull align 8 dereferenceable(32) %0) #0 comdat {
  %2 = alloca ptr, align 8
  store ptr %0, ptr %2, align 8
  %3 = load ptr, ptr %2, align 8
  %4 = call noundef nonnull align 8 dereferenceable(40) ptr @_ZN4llvm8CastInfoINS_11MCSymbolELFEKNS_8MCSymbolEvE6doCastERS3_(ptr noundef nonnull align 8 dereferenceable(32) %3)
  ret ptr %4
}

; Function Attrs: mustprogress nounwind uwtable
define linkonce_odr hidden noundef nonnull align 8 dereferenceable(32) ptr @_ZNK4llvm15MCSymbolRefExpr9getSymbolEv(ptr noundef nonnull align 8 dereferenceable(24) %0) #0 comdat align 2 {
  %2 = alloca ptr, align 8
  store ptr %0, ptr %2, align 8
  %3 = load ptr, ptr %2, align 8
  %4 = getelementptr inbounds nuw %"class.llvm::MCSymbolRefExpr", ptr %3, i32 0, i32 1
  %5 = load ptr, ptr %4, align 8
  ret ptr %5
}

; Function Attrs: mustprogress nounwind uwtable
define linkonce_odr hidden noundef ptr @_ZN4llvm4castINS_15MCSymbolRefExprEKNS_6MCExprEEEDcPT0_(ptr noundef %0) #0 comdat {
  %2 = alloca ptr, align 8
  store ptr %0, ptr %2, align 8
  %3 = call noundef ptr @_ZN4llvm8CastInfoINS_15MCSymbolRefExprEPKNS_6MCExprEvE6doCastERKS4_(ptr noundef nonnull align 8 dereferenceable(8) %2)
  ret ptr %3
}

; Function Attrs: mustprogress nounwind uwtable
define linkonce_odr hidden noundef ptr @_ZNK4llvm12MCBinaryExpr6getRHSEv(ptr noundef nonnull align 8 dereferenceable(32) %0) #0 comdat align 2 {
  %2 = alloca ptr, align 8
  store ptr %0, ptr %2, align 8
  %3 = load ptr, ptr %2, align 8
  %4 = getelementptr inbounds nuw %"class.llvm::MCBinaryExpr", ptr %3, i32 0, i32 2
  %5 = load ptr, ptr %4, align 8
  ret ptr %5
}

; Function Attrs: mustprogress nounwind uwtable
define linkonce_odr hidden noundef ptr @_ZNK4llvm12MCBinaryExpr6getLHSEv(ptr noundef nonnull align 8 dereferenceable(32) %0) #0 comdat align 2 {
  %2 = alloca ptr, align 8
  store ptr %0, ptr %2, align 8
  %3 = load ptr, ptr %2, align 8
  %4 = getelementptr inbounds nuw %"class.llvm::MCBinaryExpr", ptr %3, i32 0, i32 1
  %5 = load ptr, ptr %4, align 8
  ret ptr %5
}

; Function Attrs: mustprogress nounwind uwtable
define linkonce_odr hidden noundef ptr @_ZN4llvm4castINS_12MCBinaryExprEKNS_6MCExprEEEDcPT0_(ptr noundef %0) #0 comdat {
  %2 = alloca ptr, align 8
  store ptr %0, ptr %2, align 8
  %3 = call noundef ptr @_ZN4llvm8CastInfoINS_12MCBinaryExprEPKNS_6MCExprEvE6doCastERKS4_(ptr noundef nonnull align 8 dereferenceable(8) %2)
  ret ptr %3
}

; Function Attrs: mustprogress nounwind uwtable
define linkonce_odr hidden noundef zeroext i8 @_ZNK4llvm6MCExpr7getKindEv(ptr noundef nonnull align 8 dereferenceable(16) %0) #0 comdat align 2 {
  %2 = alloca ptr, align 8
  store ptr %0, ptr %2, align 8
  %3 = load ptr, ptr %2, align 8
  %4 = getelementptr inbounds nuw %"class.llvm::MCExpr", ptr %3, i32 0, i32 0
  %5 = load i8, ptr %4, align 8
  ret i8 %5
}

; Function Attrs: mustprogress nounwind uwtable
define internal void @_ZL28fixELFSymbolsInTLSFixupsImplPKN4llvm6MCExprERNS_11MCAssemblerE(ptr noundef %0, ptr noundef nonnull align 8 dereferenceable(372) %1) #0 {
  %3 = alloca ptr, align 8
  %4 = alloca ptr, align 8
  %5 = alloca ptr, align 8
  %6 = alloca ptr, align 8
  store ptr %0, ptr %3, align 8
  store ptr %1, ptr %4, align 8
  %7 = load ptr, ptr %3, align 8
  %8 = call noundef zeroext i8 @_ZNK4llvm6MCExpr7getKindEv(ptr noundef nonnull align 8 dereferenceable(16) %7)
  %9 = zext i8 %8 to i32
  switch i32 %9, label %32 [
    i32 4, label %10
    i32 1, label %11
    i32 0, label %12
    i32 2, label %21
    i32 3, label %27
  ]

10:                                               ; preds = %2
  unreachable

11:                                               ; preds = %2
  br label %32

12:                                               ; preds = %2
  %13 = load ptr, ptr %3, align 8
  %14 = call noundef ptr @_ZN4llvm4castINS_12MCBinaryExprEKNS_6MCExprEEEDcPT0_(ptr noundef %13)
  store ptr %14, ptr %5, align 8
  %15 = load ptr, ptr %5, align 8
  %16 = call noundef ptr @_ZNK4llvm12MCBinaryExpr6getLHSEv(ptr noundef nonnull align 8 dereferenceable(32) %15)
  %17 = load ptr, ptr %4, align 8
  call void @_ZL28fixELFSymbolsInTLSFixupsImplPKN4llvm6MCExprERNS_11MCAssemblerE(ptr noundef %16, ptr noundef nonnull align 8 dereferenceable(372) %17)
  %18 = load ptr, ptr %5, align 8
  %19 = call noundef ptr @_ZNK4llvm12MCBinaryExpr6getRHSEv(ptr noundef nonnull align 8 dereferenceable(32) %18)
  %20 = load ptr, ptr %4, align 8
  call void @_ZL28fixELFSymbolsInTLSFixupsImplPKN4llvm6MCExprERNS_11MCAssemblerE(ptr noundef %19, ptr noundef nonnull align 8 dereferenceable(372) %20)
  br label %32

21:                                               ; preds = %2
  %22 = load ptr, ptr %3, align 8
  %23 = call noundef ptr @_ZN4llvm4castINS_15MCSymbolRefExprEKNS_6MCExprEEEDcPT0_(ptr noundef %22)
  store ptr %23, ptr %6, align 8
  %24 = load ptr, ptr %6, align 8
  %25 = call noundef nonnull align 8 dereferenceable(32) ptr @_ZNK4llvm15MCSymbolRefExpr9getSymbolEv(ptr noundef nonnull align 8 dereferenceable(24) %24)
  %26 = call noundef nonnull align 8 dereferenceable(40) ptr @_ZN4llvm4castINS_11MCSymbolELFENS_8MCSymbolEEEDcRKT0_(ptr noundef nonnull align 8 dereferenceable(32) %25)
  call void @_ZNK4llvm11MCSymbolELF7setTypeEj(ptr noundef nonnull align 8 dereferenceable(40) %26, i32 noundef 6)
  br label %32

27:                                               ; preds = %2
  %28 = load ptr, ptr %3, align 8
  %29 = call noundef ptr @_ZN4llvm4castINS_11MCUnaryExprEKNS_6MCExprEEEDcPT0_(ptr noundef %28)
  %30 = call noundef ptr @_ZNK4llvm11MCUnaryExpr10getSubExprEv(ptr noundef nonnull align 8 dereferenceable(24) %29)
  %31 = load ptr, ptr %4, align 8
  call void @_ZL28fixELFSymbolsInTLSFixupsImplPKN4llvm6MCExprERNS_11MCAssemblerE(ptr noundef %30, ptr noundef nonnull align 8 dereferenceable(372) %31)
  br label %32

32:                                               ; preds = %27, %21, %12, %11, %2
  ret void
}